; Function Attrs: mustprogress nounwind uwtable
define hidden noundef ptr @_ZNK19OpenColorIO_v2_4dev18NamedTransformImpl8getAliasEm(ptr nocapture noundef nonnull readonly align 8 dereferenceable(224) %this, i64 noundef %idx) unnamed_addr #3 align 2 {
entry:
  %m_aliases = getelementptr inbounds i8, ptr %this, i64 40
  %_M_finish.i = getelementptr inbounds i8, ptr %this, i64 48
  %0 = load ptr, ptr %_M_finish.i, align 8
  %1 = load ptr, ptr %m_aliases, align 8
  %sub.ptr.lhs.cast.i = ptrtoint ptr %0 to i64
  %sub.ptr.rhs.cast.i = ptrtoint ptr %1 to i64
  %sub.ptr.sub.i = sub i64 %sub.ptr.lhs.cast.i, %sub.ptr.rhs.cast.i
  %sub.ptr.div.i = ashr exact i64 %sub.ptr.sub.i, 5
  %cmp = icmp ugt i64 %sub.ptr.div.i, %idx
  br i1 %cmp, label %if.then, label %return

if.then:                                          ; preds = %entry
  %add.ptr.i = getelementptr inbounds %"class.std::__cxx11::basic_string", ptr %1, i64 %idx
  %call4 = tail call noundef ptr @_ZNKSt7__cxx1112basic_stringIcSt11char_traitsIcESaIcEE5c_strEv(ptr noundef nonnull align 8 dereferenceable(32) %add.ptr.i) #17
  br label %return

return:                                           ; preds = %entry, %if.then
  %retval.0 = phi ptr [ %call4, %if.then ], [ @.str, %entry ]
  ret ptr %retval.0
}